; ModuleID = '33/1929.c'
source_filename = "33/1929.c"
target datalayout = "e-m:e-p270:32:32-p271:32:32-p272:64:64-i64:64-f80:128-n8:16:32:64-S128"
target triple = "x86_64-pc-linux-gnu"

@.str = private unnamed_addr constant [3 x i8] c"%d\00", align 1
@.str.1 = private unnamed_addr constant [3 x i8] c"%s\00", align 1
@.str.2 = private unnamed_addr constant [4 x i8] c"%s\0A\00", align 1

; Function Attrs: noinline nounwind uwtable
define dso_local i32 @main() #0 {
  %1 = alloca i32, align 4
  %2 = alloca i32, align 4
  %3 = alloca i32, align 4
  %4 = alloca i32, align 4
  %5 = alloca [270 x i8], align 16
  %6 = alloca [270 x i8], align 16
  store i32 0, i32* %1, align 4
  %7 = call i32 (i8*, ...) @__isoc99_scanf(i8* getelementptr inbounds ([3 x i8], [3 x i8]* @.str, i64 0, i64 0), i32* %2)
  %8 = bitcast [270 x i8]* %5 to i8*
  call void @llvm.memset.p0i8.i64(i8* align 16 %8, i8 0, i64 270, i1 false)
  %9 = bitcast [270 x i8]* %6 to i8*
  call void @llvm.memset.p0i8.i64(i8* align 16 %9, i8 0, i64 270, i1 false)
  store i32 0, i32* %3, align 4
  br label %10

10:                                               ; preds = %85, %0
  %11 = load i32, i32* %3, align 4
  %12 = load i32, i32* %2, align 4
  %13 = icmp slt i32 %11, %12
  br i1 %13, label %14, label %88

14:                                               ; preds = %10
  store i32 0, i32* %4, align 4
  br label %15

15:                                               ; preds = %22, %14
  %16 = load i32, i32* %4, align 4
  %17 = icmp slt i32 %16, 270
  br i1 %17, label %18, label %25

18:                                               ; preds = %15
  %19 = load i32, i32* %4, align 4
  %20 = sext i32 %19 to i64
  %21 = getelementptr inbounds [270 x i8], [270 x i8]* %6, i64 0, i64 %20
  store i8 0, i8* %21, align 1
  br label %22

22:                                               ; preds = %18
  %23 = load i32, i32* %4, align 4
  %24 = add nsw i32 %23, 1
  store i32 %24, i32* %4, align 4
  br label %15

25:                                               ; preds = %15
  %26 = getelementptr inbounds [270 x i8], [270 x i8]* %5, i64 0, i64 0
  %27 = call i32 (i8*, ...) @__isoc99_scanf(i8* getelementptr inbounds ([3 x i8], [3 x i8]* @.str.1, i64 0, i64 0), i8* %26)
  store i32 0, i32* %4, align 4
  br label %28

28:                                               ; preds = %79, %25
  %29 = load i32, i32* %4, align 4
  %30 = sext i32 %29 to i64
  %31 = getelementptr inbounds [270 x i8], [270 x i8]* %5, i64 0, i64 0
  %32 = call i64 @strlen(i8* %31) #4
  %33 = icmp ult i64 %30, %32
  br i1 %33, label %34, label %82

34:                                               ; preds = %28
  %35 = load i32, i32* %4, align 4
  %36 = sext i32 %35 to i64
  %37 = getelementptr inbounds [270 x i8], [270 x i8]* %5, i64 0, i64 %36
  %38 = load i8, i8* %37, align 1
  %39 = sext i8 %38 to i32
  %40 = icmp eq i32 %39, 65
  br i1 %40, label %41, label %45

41:                                               ; preds = %34
  %42 = load i32, i32* %4, align 4
  %43 = sext i32 %42 to i64
  %44 = getelementptr inbounds [270 x i8], [270 x i8]* %6, i64 0, i64 %43
  store i8 84, i8* %44, align 1
  br label %45

45:                                               ; preds = %41, %34
  %46 = load i32, i32* %4, align 4
  %47 = sext i32 %46 to i64
  %48 = getelementptr inbounds [270 x i8], [270 x i8]* %5, i64 0, i64 %47
  %49 = load i8, i8* %48, align 1
  %50 = sext i8 %49 to i32
  %51 = icmp eq i32 %50, 84
  br i1 %51, label %52, label %56

52:                                               ; preds = %45
  %53 = load i32, i32* %4, align 4
  %54 = sext i32 %53 to i64
  %55 = getelementptr inbounds [270 x i8], [270 x i8]* %6, i64 0, i64 %54
  store i8 65, i8* %55, align 1
  br label %56

56:                                               ; preds = %52, %45
  %57 = load i32, i32* %4, align 4
  %58 = sext i32 %57 to i64
  %59 = getelementptr inbounds [270 x i8], [270 x i8]* %5, i64 0, i64 %58
  %60 = load i8, i8* %59, align 1
  %61 = sext i8 %60 to i32
  %62 = icmp eq i32 %61, 71
  br i1 %62, label %63, label %67

63:                                               ; preds = %56
  %64 = load i32, i32* %4, align 4
  %65 = sext i32 %64 to i64
  %66 = getelementptr inbounds [270 x i8], [270 x i8]* %6, i64 0, i64 %65
  store i8 67, i8* %66, align 1
  br label %67

67:                                               ; preds = %63, %56
  %68 = load i32, i32* %4, align 4
  %69 = sext i32 %68 to i64
  %70 = getelementptr inbounds [270 x i8], [270 x i8]* %5, i64 0, i64 %69
  %71 = load i8, i8* %70, align 1
  %72 = sext i8 %71 to i32
  %73 = icmp eq i32 %72, 67
  br i1 %73, label %74, label %78

74:                                               ; preds = %67
  %75 = load i32, i32* %4, align 4
  %76 = sext i32 %75 to i64
  %77 = getelementptr inbounds [270 x i8], [270 x i8]* %6, i64 0, i64 %76
  store i8 71, i8* %77, align 1
  br label %78

78:                                               ; preds = %74, %67
  br label %79

79:                                               ; preds = %78
  %80 = load i32, i32* %4, align 4
  %81 = add nsw i32 %80, 1
  store i32 %81, i32* %4, align 4
  br label %28

82:                                               ; preds = %28
  %83 = getelementptr inbounds [270 x i8], [270 x i8]* %6, i64 0, i64 0
  %84 = call i32 (i8*, ...) @printf(i8* getelementptr inbounds ([4 x i8], [4 x i8]* @.str.2, i64 0, i64 0), i8* %83)
  br label %85

85:                                               ; preds = %82
  %86 = load i32, i32* %3, align 4
  %87 = add nsw i32 %86, 1
  store i32 %87, i32* %3, align 4
  br label %10

88:                                               ; preds = %10
  ret i32 0
}

declare dso_local i32 @__isoc99_scanf(i8*, ...) #1

; Function Attrs: argmemonly nounwind willreturn
declare void @llvm.memset.p0i8.i64(i8* nocapture writeonly, i8, i64, i1 immarg) #2

; Function Attrs: nounwind readonly
declare dso_local i64 @strlen(i8*) #3

declare dso_local i32 @printf(i8*, ...) #1


!llvm.module.flags = !{!0}
!llvm.ident = !{!1}

!0 = !{i32 1, !"wchar_size", i32 4}
!1 = !{!"clang version 10.0.0-4ubuntu1 "}
